; ModuleID = '42/1692.cpp'
source_filename = "42/1692.cpp"
target datalayout = "e-m:e-p270:32:32-p271:32:32-p272:64:64-i64:64-f80:128-n8:16:32:64-S128"
target triple = "x86_64-pc-linux-gnu"

%"class.std::ios_base::Init" = type { i8 }
%"class.std::basic_istream" = type { i32 (...)**, i64, %"class.std::basic_ios" }
%"class.std::basic_ios" = type { %"class.std::ios_base", %"class.std::basic_ostream"*, i8, i8, %"class.std::basic_streambuf"*, %"class.std::ctype"*, %"class.std::num_put"*, %"class.std::num_get"* }
%"class.std::ios_base" = type { i32 (...)**, i64, i64, i32, i32, i32, %"struct.std::ios_base::_Callback_list"*, %"struct.std::ios_base::_Words", [8 x %"struct.std::ios_base::_Words"], i32, %"struct.std::ios_base::_Words"*, %"class.std::locale" }
%"struct.std::ios_base::_Callback_list" = type { %"struct.std::ios_base::_Callback_list"*, void (i32, %"class.std::ios_base"*, i32)*, i32, i32 }
%"struct.std::ios_base::_Words" = type { i8*, i64 }
%"class.std::locale" = type { %"class.std::locale::_Impl"* }
%"class.std::locale::_Impl" = type { i32, %"class.std::locale::facet"**, i64, %"class.std::locale::facet"**, i8** }
%"class.std::locale::facet" = type <{ i32 (...)**, i32, [4 x i8] }>
%"class.std::basic_ostream" = type { i32 (...)**, %"class.std::basic_ios" }
%"class.std::basic_streambuf" = type { i32 (...)**, i8*, i8*, i8*, i8*, i8*, i8*, %"class.std::locale" }
%"class.std::ctype" = type <{ %"class.std::locale::facet.base", [4 x i8], %struct.__locale_struct*, i8, [7 x i8], i32*, i32*, i16*, i8, [256 x i8], [256 x i8], i8, [6 x i8] }>
%"class.std::locale::facet.base" = type <{ i32 (...)**, i32 }>
%struct.__locale_struct = type { [13 x %struct.__locale_data*], i16*, i32*, i32*, [13 x i8*] }
%struct.__locale_data = type opaque
%"class.std::num_put" = type { %"class.std::locale::facet.base", [4 x i8] }
%"class.std::num_get" = type { %"class.std::locale::facet.base", [4 x i8] }

@_ZStL8__ioinit = internal global %"class.std::ios_base::Init" zeroinitializer, align 1
@__dso_handle = external hidden global i8
@_ZSt3cin = external dso_local global %"class.std::basic_istream", align 8
@_ZSt4cout = external dso_local global %"class.std::basic_ostream", align 8
@.str = private unnamed_addr constant [2 x i8] c" \00", align 1
@llvm.global_ctors = appending global [1 x { i32, void ()*, i8* }] [{ i32, void ()*, i8* } { i32 65535, void ()* @_GLOBAL__sub_I_1692.cpp, i8* null }]

; Function Attrs: noinline uwtable
define internal void @__cxx_global_var_init() #0 section ".text.startup" {
  call void @_ZNSt8ios_base4InitC1Ev(%"class.std::ios_base::Init"* @_ZStL8__ioinit)
  %1 = call i32 @__cxa_atexit(void (i8*)* bitcast (void (%"class.std::ios_base::Init"*)* @_ZNSt8ios_base4InitD1Ev to void (i8*)*), i8* getelementptr inbounds (%"class.std::ios_base::Init", %"class.std::ios_base::Init"* @_ZStL8__ioinit, i32 0, i32 0), i8* @__dso_handle) #3
  ret void
}

declare dso_local void @_ZNSt8ios_base4InitC1Ev(%"class.std::ios_base::Init"*) unnamed_addr #1

; Function Attrs: nounwind
declare dso_local void @_ZNSt8ios_base4InitD1Ev(%"class.std::ios_base::Init"*) unnamed_addr #2

; Function Attrs: nounwind
declare dso_local i32 @__cxa_atexit(void (i8*)*, i8*, i8*) #3

; Function Attrs: noinline norecurse uwtable
define dso_local i32 @main() #4 {
  %1 = alloca i32, align 4
  %2 = alloca i32, align 4
  %3 = alloca i32, align 4
  %4 = alloca i8*, align 8
  %5 = alloca i64, align 8
  %6 = alloca i32, align 4
  %7 = alloca i32, align 4
  %8 = alloca i32, align 4
  %9 = alloca i32, align 4
  %10 = alloca i32, align 4
  %11 = alloca i32, align 4
  store i32 0, i32* %1, align 4
  %12 = call dereferenceable(280) %"class.std::basic_istream"* @_ZNSirsERi(%"class.std::basic_istream"* @_ZSt3cin, i32* dereferenceable(4) %2)
  %13 = load i32, i32* %2, align 4
  store i32 %13, i32* %3, align 4
  %14 = load i32, i32* %2, align 4
  %15 = zext i32 %14 to i64
  %16 = call i8* @llvm.stacksave()
  store i8* %16, i8** %4, align 8
  %17 = alloca i32, i64 %15, align 16
  store i64 %15, i64* %5, align 8
  store i32 1, i32* %6, align 4
  br label %18

18:                                               ; preds = %27, %0
  %19 = load i32, i32* %6, align 4
  %20 = load i32, i32* %2, align 4
  %21 = icmp sle i32 %19, %20
  br i1 %21, label %22, label %30

22:                                               ; preds = %18
  %23 = load i32, i32* %6, align 4
  %24 = sext i32 %23 to i64
  %25 = getelementptr inbounds i32, i32* %17, i64 %24
  %26 = call dereferenceable(280) %"class.std::basic_istream"* @_ZNSirsERi(%"class.std::basic_istream"* @_ZSt3cin, i32* dereferenceable(4) %25)
  br label %27

27:                                               ; preds = %22
  %28 = load i32, i32* %6, align 4
  %29 = add nsw i32 %28, 1
  store i32 %29, i32* %6, align 4
  br label %18

30:                                               ; preds = %18
  %31 = call dereferenceable(280) %"class.std::basic_istream"* @_ZNSirsERi(%"class.std::basic_istream"* @_ZSt3cin, i32* dereferenceable(4) %7)
  store i32 1, i32* %8, align 4
  store i32 1, i32* %9, align 4
  br label %32

32:                                               ; preds = %69, %30
  %33 = load i32, i32* %8, align 4
  %34 = load i32, i32* %2, align 4
  %35 = icmp sle i32 %33, %34
  br i1 %35, label %36, label %72

36:                                               ; preds = %32
  %37 = load i32, i32* %8, align 4
  %38 = sext i32 %37 to i64
  %39 = getelementptr inbounds i32, i32* %17, i64 %38
  %40 = load i32, i32* %39, align 4
  %41 = load i32, i32* %7, align 4
  %42 = icmp eq i32 %40, %41
  br i1 %42, label %43, label %66

43:                                               ; preds = %36
  %44 = load i32, i32* %3, align 4
  %45 = sub nsw i32 %44, 1
  store i32 %45, i32* %3, align 4
  %46 = load i32, i32* %8, align 4
  store i32 %46, i32* %10, align 4
  br label %47

47:                                               ; preds = %60, %43
  %48 = load i32, i32* %10, align 4
  %49 = load i32, i32* %2, align 4
  %50 = icmp sle i32 %48, %49
  br i1 %50, label %51, label %63

51:                                               ; preds = %47
  %52 = load i32, i32* %10, align 4
  %53 = add nsw i32 %52, 1
  %54 = sext i32 %53 to i64
  %55 = getelementptr inbounds i32, i32* %17, i64 %54
  %56 = load i32, i32* %55, align 4
  %57 = load i32, i32* %10, align 4
  %58 = sext i32 %57 to i64
  %59 = getelementptr inbounds i32, i32* %17, i64 %58
  store i32 %56, i32* %59, align 4
  br label %60

60:                                               ; preds = %51
  %61 = load i32, i32* %10, align 4
  %62 = add nsw i32 %61, 1
  store i32 %62, i32* %10, align 4
  br label %47

63:                                               ; preds = %47
  %64 = load i32, i32* %8, align 4
  %65 = sub nsw i32 %64, 1
  store i32 %65, i32* %8, align 4
  br label %66

66:                                               ; preds = %63, %36
  %67 = load i32, i32* %8, align 4
  %68 = add nsw i32 %67, 1
  store i32 %68, i32* %8, align 4
  br label %69

69:                                               ; preds = %66
  %70 = load i32, i32* %9, align 4
  %71 = add nsw i32 %70, 1
  store i32 %71, i32* %9, align 4
  br label %32

72:                                               ; preds = %32
  %73 = getelementptr inbounds i32, i32* %17, i64 1
  %74 = load i32, i32* %73, align 4
  %75 = call dereferenceable(272) %"class.std::basic_ostream"* @_ZNSolsEi(%"class.std::basic_ostream"* @_ZSt4cout, i32 %74)
  store i32 2, i32* %11, align 4
  br label %76

76:                                               ; preds = %87, %72
  %77 = load i32, i32* %11, align 4
  %78 = load i32, i32* %3, align 4
  %79 = icmp sle i32 %77, %78
  br i1 %79, label %80, label %90

80:                                               ; preds = %76
  %81 = call dereferenceable(272) %"class.std::basic_ostream"* @_ZStlsISt11char_traitsIcEERSt13basic_ostreamIcT_ES5_PKc(%"class.std::basic_ostream"* dereferenceable(272) @_ZSt4cout, i8* getelementptr inbounds ([2 x i8], [2 x i8]* @.str, i64 0, i64 0))
  %82 = load i32, i32* %11, align 4
  %83 = sext i32 %82 to i64
  %84 = getelementptr inbounds i32, i32* %17, i64 %83
  %85 = load i32, i32* %84, align 4
  %86 = call dereferenceable(272) %"class.std::basic_ostream"* @_ZNSolsEi(%"class.std::basic_ostream"* %81, i32 %85)
  br label %87

87:                                               ; preds = %80
  %88 = load i32, i32* %11, align 4
  %89 = add nsw i32 %88, 1
  store i32 %89, i32* %11, align 4
  br label %76

90:                                               ; preds = %76
  store i32 0, i32* %1, align 4
  %91 = load i8*, i8** %4, align 8
  call void @llvm.stackrestore(i8* %91)
  %92 = load i32, i32* %1, align 4
  ret i32 %92
}

declare dso_local dereferenceable(280) %"class.std::basic_istream"* @_ZNSirsERi(%"class.std::basic_istream"*, i32* dereferenceable(4)) #1

; Function Attrs: nounwind
declare i8* @llvm.stacksave() #3

declare dso_local dereferenceable(272) %"class.std::basic_ostream"* @_ZNSolsEi(%"class.std::basic_ostream"*, i32) #1

declare dso_local dereferenceable(272) %"class.std::basic_ostream"* @_ZStlsISt11char_traitsIcEERSt13basic_ostreamIcT_ES5_PKc(%"class.std::basic_ostream"* dereferenceable(272), i8*) #1

; Function Attrs: nounwind
declare void @llvm.stackrestore(i8*) #3

; Function Attrs: noinline uwtable
define internal void @_GLOBAL__sub_I_1692.cpp() #0 section ".text.startup" {
  call void @__cxx_global_var_init()
  ret void
}


!llvm.module.flags = !{!0}
!llvm.ident = !{!1}

!0 = !{i32 1, !"wchar_size", i32 4}
!1 = !{!"clang version 10.0.0-4ubuntu1 "}
